(dp1
S'OriginalConfig'
p2
ccopy_reg
_reconstructor
p3
(cWMCore.Configuration
Configuration
p4
c__builtin__
object
p5
NtRp6
(dp7
S'Site'
p8
g3
(cWMCore.Configuration
ConfigSection
p9
g5
NtRp10
(dp11
S'_internal_documentation'
p12
S''
sS'_internal_settings'
p13
c__builtin__
set
p14
((lp15
S'storageSite'
p16
atRp17
sS'_internal_name'
p18
g8
sS'_internal_docstrings'
p19
(dp20
sS'_internal_children'
p21
g14
((ltRp22
sg16
S'T3_US_FNALLPC'
p23
sS'_internal_parent_ref'
p24
NsbsS'_internal_sections'
p25
(lp26
S'General'
p27
aS'JobType'
p28
aS'Data'
p29
ag8
asg27
g3
(g9
g5
NtRp30
(dp31
g12
S''
sg13
g14
((lp32
S'transferLogs'
p33
aS'requestName'
p34
atRp35
sg18
g27
sg19
(dp36
sg21
g14
((ltRp37
sg34
S'zh_without_file'
p38
sg24
Nsg33
I01
sbsS'_internal_webapps'
p39
(lp40
sS'_internal_components'
p41
(lp42
sg29
g3
(g9
g5
NtRp43
(dp44
S'inputDataset'
p45
S'/ZH_HToBB_ZToLL_M-125_13TeV_powheg-herwigpp/Phys14DR-PU20bx25_tsg_PHYS14_25_V1-v1/MINIAODSIM'
p46
sS'outLFN'
p47
S'/store/user/bparida/test_job/new/'
p48
sS'publishDBS'
p49
S'https://cmsweb.cern.ch/dbs/prod/phys03/DBSWriter/'
p50
sS'publication'
p51
I01
sS'splitting'
p52
S'FileBased'
p53
sS'unitsPerJob'
p54
I1
sg12
S''
sg13
g14
((lp55
g45
ag47
ag49
ag51
ag54
aS'ignoreLocality'
p56
aS'inputDBS'
p57
ag52
aS'publishDataName'
p58
atRp59
sg56
I01
sg18
g29
sg57
S'https://cmsweb.cern.ch/dbs/prod/phys03/DBSReader/'
p60
sg19
(dp61
sg21
g14
((ltRp62
sg58
S'ZH_without_file'
p63
sg24
Nsbsg28
g3
(g9
g5
NtRp64
(dp65
g12
S''
sg13
g14
((lp66
S'psetName'
p67
aS'pluginName'
p68
aS'allowNonProductionCMSSW'
p69
atRp70
sg18
g28
sg19
(dp71
sg68
S'Analysis'
p72
sg21
g14
((ltRp73
sg69
I01
sg67
S'ConfFile_cfg.py'
p74
sg24
NsbsbsS'voGroup'
p75
S''
sS'Server'
p76
S'cmsweb.cern.ch'
p77
sS'instance'
p78
S'prod'
p79
sS'RequestName'
p80
S'150428_214629:bparida_crab_zh_without_file'
p81
sS'voRole'
p82
S''
sS'Port'
p83
S''
s.